Certificate:
    Data:
        Version: 3 (0x2)
        Serial Number: 1048579 (0x100003)
        Signature Algorithm: sha1WithRSAEncryption
        Issuer: C=EE, O=UT, OU=ATI, CN=Library CA
        Validity
            Not Before: May 27 15:14:02 2010 GMT
            Not After : May 27 15:14:02 2011 GMT
        Subject: C=EE, O=UT, OU=ATI, CN=Library SSL
        Subject Public Key Info:
            Public Key Algorithm: rsaEncryption
            RSA Public Key: (1024 bit)
                Modulus (1024 bit):
                    00:cb:1e:d2:bb:86:dc:49:58:31:8d:9f:74:38:d6:
                    0c:45:9b:83:ae:33:0e:b5:c2:f5:41:2a:96:33:fa:
                    2f:b8:ef:ef:38:2f:1e:87:f6:23:28:03:5e:24:41:
                    13:88:8a:dd:36:ee:d6:f0:20:0c:04:5b:b9:59:b1:
                    13:5f:ae:55:0e:f3:8a:2b:9c:1d:80:26:56:ea:85:
                    c1:25:d2:60:5a:a4:37:48:3a:95:b0:06:f3:ce:e7:
                    c7:7c:ee:71:db:50:ec:11:bb:97:e9:4a:d9:fe:0c:
                    5c:5e:aa:4b:ad:40:f1:2d:ae:fb:b0:63:e5:ca:4c:
                    10:4d:26:51:3f:2e:63:38:29
                Exponent: 65537 (0x10001)
        X509v3 extensions:
            X509v3 Basic Constraints: 
                CA:FALSE
            Netscape Cert Type: 
                SSL Server
            X509v3 Extended Key Usage: 
                TLS Web Server Authentication, Netscape Server Gated Crypto
            Netscape Comment: 
                OpenSSL Certificate for SSL Server
    Signature Algorithm: sha1WithRSAEncryption
        3e:39:cf:55:dd:d1:2c:37:8b:ff:5c:67:29:1f:27:07:6b:73:
        31:79:a8:73:d7:b4:a7:72:a0:d8:ae:1d:84:70:54:8c:62:c9:
        9c:92:12:a8:0e:57:9c:ed:2c:58:db:c7:ad:58:30:b6:aa:2d:
        41:a5:d9:1c:29:be:a4:35:08:a7:c0:db:76:ae:1c:8d:b2:d8:
        25:af:57:bd:dc:12:c1:a9:b9:c6:cc:3b:57:36:8f:61:8f:c6:
        8a:7b:24:d4:ba:3c:5c:44:04:dd:11:8e:a5:15:c1:6a:91:31:
        83:c3:e3:41:eb:f2:7b:98:44:02:98:e3:db:26:e4:50:4c:a5:
        0f:5d
-----BEGIN CERTIFICATE-----
MIICZjCCAc+gAwIBAgIDEAADMA0GCSqGSIb3DQEBBQUAMD0xCzAJBgNVBAYTAkVF
MQswCQYDVQQKEwJVVDEMMAoGA1UECxMDQVRJMRMwEQYDVQQDEwpMaWJyYXJ5IENB
MB4XDTEwMDUyNzE1MTQwMloXDTExMDUyNzE1MTQwMlowPjELMAkGA1UEBhMCRUUx
CzAJBgNVBAoTAlVUMQwwCgYDVQQLEwNBVEkxFDASBgNVBAMTC0xpYnJhcnkgU1NM
MIGfMA0GCSqGSIb3DQEBAQUAA4GNADCBiQKBgQDLHtK7htxJWDGNn3Q41gxFm4Ou
Mw61wvVBKpYz+i+47+84Lx6H9iMoA14kQROIit027tbwIAwEW7lZsRNfrlUO84or
nB2AJlbqhcEl0mBapDdIOpWwBvPO58d87nHbUOwRu5fpStn+DFxeqkutQPEtrvuw
Y+XKTBBNJlE/LmM4KQIDAQABo3MwcTAJBgNVHRMEAjAAMBEGCWCGSAGG+EIBAQQE
AwIGQDAeBgNVHSUEFzAVBggrBgEFBQcDAQYJYIZIAYb4QgQBMDEGCWCGSAGG+EIB
DQQkFiJPcGVuU1NMIENlcnRpZmljYXRlIGZvciBTU0wgU2VydmVyMA0GCSqGSIb3
DQEBBQUAA4GBAD45z1Xd0Sw3i/9cZykfJwdrczF5qHPXtKdyoNiuHYRwVIxiyZyS
EqgOV5ztLFjbx61YMLaqLUGl2RwpvqQ1CKfA23auHI2y2CWvV73cEsGpucbMO1c2
j2GPxop7JNS6PFxEBN0RjqUVwWqRMYPD40Hr8nuYRAKY49sm5FBMpQ9d
-----END CERTIFICATE-----
