Certificate:
    Data:
        Version: 3 (0x2)
        Serial Number: 1048578 (0x100002)
        Signature Algorithm: sha1WithRSAEncryption
        Issuer: C=EE, O=UT, OU=ATI, CN=Library CA
        Validity
            Not Before: May 27 15:08:47 2010 GMT
            Not After : May 27 15:08:47 2011 GMT
        Subject: C=EE, O=UT, OU=ATI, CN=Library SSL
        Subject Public Key Info:
            Public Key Algorithm: rsaEncryption
            RSA Public Key: (1024 bit)
                Modulus (1024 bit):
                    00:cb:44:2c:9b:e0:2c:b9:e7:eb:6f:89:df:49:a6:
                    9a:87:60:be:f2:bc:82:59:c3:58:04:31:45:de:d9:
                    09:81:b5:06:4f:a3:03:c4:94:d5:a6:4c:79:fa:30:
                    e0:bb:7e:d9:c7:31:52:ea:72:73:27:e5:31:a8:5f:
                    fb:c9:f6:4c:a6:e3:8b:c1:82:50:66:10:7c:29:2d:
                    68:1c:b6:a5:aa:51:0e:6e:44:b1:da:8b:85:d6:30:
                    45:e1:93:4f:86:1a:ba:9d:2f:fa:85:74:d8:cb:3b:
                    6f:12:1a:b5:55:28:82:67:46:51:df:fb:3f:e2:4f:
                    1a:36:df:ed:5c:59:76:53:fd
                Exponent: 65537 (0x10001)
        X509v3 extensions:
            X509v3 Basic Constraints: 
                CA:FALSE
            Netscape Cert Type: 
                SSL Server
            X509v3 Extended Key Usage: 
                TLS Web Server Authentication, Netscape Server Gated Crypto, Microsoft Server Gated Crypto
            Netscape Comment: 
                OpenSSL Certificate for SSL Server
    Signature Algorithm: sha1WithRSAEncryption
        a8:8b:ea:7f:85:30:72:42:b0:ce:69:a0:ad:5b:6f:ff:31:8c:
        8f:cd:83:f2:e9:4a:0b:5e:88:58:91:a4:a2:2e:bf:d9:0f:dc:
        88:e4:0a:e2:90:a8:e0:8f:8e:97:a7:ca:cb:c3:df:a5:73:c6:
        6f:9f:d0:8f:ae:79:1e:73:5c:e9:fe:14:54:4b:3a:86:4d:08:
        a1:0a:36:90:d0:95:8f:ea:36:18:ad:21:93:61:91:5a:46:75:
        e8:6f:33:e4:b9:9a:bc:0b:e8:7b:87:2c:38:26:2c:71:a4:0c:
        53:9c:c7:8b:28:0b:6e:fb:b8:c6:74:cb:d7:a6:4c:0a:32:f2:
        95:ca
-----BEGIN CERTIFICATE-----
MIICcjCCAdugAwIBAgIDEAACMA0GCSqGSIb3DQEBBQUAMD0xCzAJBgNVBAYTAkVF
MQswCQYDVQQKEwJVVDEMMAoGA1UECxMDQVRJMRMwEQYDVQQDEwpMaWJyYXJ5IENB
MB4XDTEwMDUyNzE1MDg0N1oXDTExMDUyNzE1MDg0N1owPjELMAkGA1UEBhMCRUUx
CzAJBgNVBAoTAlVUMQwwCgYDVQQLEwNBVEkxFDASBgNVBAMTC0xpYnJhcnkgU1NM
MIGfMA0GCSqGSIb3DQEBAQUAA4GNADCBiQKBgQDLRCyb4Cy55+tvid9JppqHYL7y
vIJZw1gEMUXe2QmBtQZPowPElNWmTHn6MOC7ftnHMVLqcnMn5TGoX/vJ9kym44vB
glBmEHwpLWgctqWqUQ5uRLHai4XWMEXhk0+GGrqdL/qFdNjLO28SGrVVKIJnRlHf
+z/iTxo23+1cWXZT/QIDAQABo38wfTAJBgNVHRMEAjAAMBEGCWCGSAGG+EIBAQQE
AwIGQDAqBgNVHSUEIzAhBggrBgEFBQcDAQYJYIZIAYb4QgQBBgorBgEEAYI3CgMD
MDEGCWCGSAGG+EIBDQQkFiJPcGVuU1NMIENlcnRpZmljYXRlIGZvciBTU0wgU2Vy
dmVyMA0GCSqGSIb3DQEBBQUAA4GBAKiL6n+FMHJCsM5poK1bb/8xjI/Ng/LpSgte
iFiRpKIuv9kP3IjkCuKQqOCPjpenysvD36Vzxm+f0I+ueR5zXOn+FFRLOoZNCKEK
NpDQlY/qNhitIZNhkVpGdehvM+S5mrwL6HuHLDgmLHGkDFOcx4soC277uMZ0y9em
TAoy8pXK
-----END CERTIFICATE-----
