Certificate:
    Data:
        Version: 3 (0x2)
        Serial Number: 1048577 (0x100001)
        Signature Algorithm: sha1WithRSAEncryption
        Issuer: C=EE, O=UT, OU=ATI, CN=Library CA
        Validity
            Not Before: May 27 15:02:03 2010 GMT
            Not After : May 27 15:02:03 2011 GMT
        Subject: C=EE, O=UT, OU=ATI, CN=Library Signature
        Subject Public Key Info:
            Public Key Algorithm: rsaEncryption
            RSA Public Key: (1024 bit)
                Modulus (1024 bit):
                    00:ba:77:fc:1c:eb:c0:bd:51:a9:04:8a:f9:87:df:
                    17:17:02:22:9a:b1:83:e4:07:18:06:70:20:d6:05:
                    3a:11:a6:e4:a2:48:45:b4:94:87:07:8f:60:f8:11:
                    04:e0:c2:3d:88:1a:bc:7b:20:63:22:7c:ab:a5:ce:
                    f3:30:86:cb:c6:17:77:10:71:c2:12:62:ee:fe:36:
                    c5:c8:d0:e4:5a:c8:5f:f1:35:aa:77:36:23:92:6b:
                    1d:64:3b:9c:a7:55:4b:7e:ae:27:c0:91:4c:67:0e:
                    be:3a:17:a5:71:4f:b2:dc:aa:46:7f:3b:86:0f:86:
                    7b:22:3e:78:94:cc:d6:1d:c1
                Exponent: 65537 (0x10001)
        X509v3 extensions:
            X509v3 Basic Constraints: 
                CA:FALSE
            X509v3 Subject Key Identifier: 
                0E:5D:40:AC:D7:6C:B5:DA:E5:E1:8A:D3:49:88:2A:C0:97:F0:01:08
            X509v3 Key Usage: 
                Digital Signature, Non Repudiation, Key Encipherment
    Signature Algorithm: sha1WithRSAEncryption
        4f:ba:24:3d:38:ba:ff:b4:91:a8:cd:54:04:bf:64:11:4d:60:
        b1:f4:ad:a5:bb:15:b3:9f:24:b6:f1:a3:f7:7f:3a:4f:5c:59:
        03:67:c3:cc:f3:dd:6d:21:ec:9d:2c:9d:6c:18:6f:2d:3d:96:
        5e:fc:49:09:f6:62:16:37:27:ab:12:7f:2f:4f:58:54:8e:a9:
        37:49:33:b6:60:af:18:86:c7:9a:dd:e8:82:18:ad:af:77:58:
        4a:52:84:1e:6f:d7:80:09:6c:ab:d1:29:cc:eb:0f:ab:8f:a6:
        51:8d:ba:f6:e6:92:55:6e:ad:ed:ff:91:8e:61:b9:fd:72:4f:
        ae:8c
-----BEGIN CERTIFICATE-----
MIICMjCCAZugAwIBAgIDEAABMA0GCSqGSIb3DQEBBQUAMD0xCzAJBgNVBAYTAkVF
MQswCQYDVQQKEwJVVDEMMAoGA1UECxMDQVRJMRMwEQYDVQQDEwpMaWJyYXJ5IENB
MB4XDTEwMDUyNzE1MDIwM1oXDTExMDUyNzE1MDIwM1owRDELMAkGA1UEBhMCRUUx
CzAJBgNVBAoTAlVUMQwwCgYDVQQLEwNBVEkxGjAYBgNVBAMTEUxpYnJhcnkgU2ln
bmF0dXJlMIGfMA0GCSqGSIb3DQEBAQUAA4GNADCBiQKBgQC6d/wc68C9UakEivmH
3xcXAiKasYPkBxgGcCDWBToRpuSiSEW0lIcHj2D4EQTgwj2IGrx7IGMifKulzvMw
hsvGF3cQccISYu7+NsXI0ORayF/xNap3NiOSax1kO5ynVUt+rifAkUxnDr46F6Vx
T7LcqkZ/O4YPhnsiPniUzNYdwQIDAQABozkwNzAJBgNVHRMEAjAAMB0GA1UdDgQW
BBQOXUCs12y12uXhitNJiCrAl/ABCDALBgNVHQ8EBAMCBeAwDQYJKoZIhvcNAQEF
BQADgYEAT7okPTi6/7SRqM1UBL9kEU1gsfStpbsVs58ktvGj9386T1xZA2fDzPPd
bSHsnSydbBhvLT2WXvxJCfZiFjcnqxJ/L09YVI6pN0kztmCvGIbHmt3oghitr3dY
SlKEHm/XgAlsq9EpzOsPq4+mUY269uaSVW6t7f+RjmG5/XJProw=
-----END CERTIFICATE-----
