Certificate:
    Data:
        Version: 1 (0x0)
        Serial Number: 1048584 (0x100008)
        Signature Algorithm: sha1WithRSAEncryption
        Issuer: C=EE, O=UT, OU=ATI, CN=Library CA
        Validity
            Not Before: Jun  1 09:29:32 2010 GMT
            Not After : Mar 21 01:01:56 2010
        Subject: C=EE, O=UT, OU=ATI, CN=Outdated
        Subject Public Key Info:
            Public Key Algorithm: rsaEncryption
            RSA Public Key: (1024 bit)
                Modulus (1024 bit):
                    00:bd:9a:c7:64:ff:14:08:43:c7:1d:a9:16:27:3e:
                    0b:8b:06:5e:c7:fd:61:67:ae:d2:de:72:fa:09:ef:
                    32:44:ad:0a:41:86:3a:d3:0e:a5:9a:99:67:30:a7:
                    7d:c5:0d:ae:c2:71:88:ab:ef:a0:06:68:04:b6:10:
                    39:d4:fd:ff:96:eb:9f:b1:fc:12:41:7f:2d:8b:8f:
                    77:f1:61:2d:c7:27:06:bc:7d:13:70:49:4e:84:74:
                    ed:a8:56:c6:ff:99:cf:01:30:0a:65:36:ce:d5:8c:
                    67:70:50:d3:47:e4:4e:89:bc:96:fb:7d:f1:86:66:
                    29:a0:7f:89:89:70:0a:80:ef
                Exponent: 65537 (0x10001)
    Signature Algorithm: sha1WithRSAEncryption
        09:bf:76:64:8d:5b:c2:83:19:a2:85:e7:2e:25:44:4f:bf:f3:
        08:a1:68:f0:4a:ca:88:26:5a:6e:fe:e9:88:7a:77:48:9b:a3:
        2c:f4:a0:bf:19:15:68:20:1d:2f:2a:62:5b:67:7e:c2:2e:75:
        a1:30:1a:81:5f:14:c0:fd:4a:05:ea:da:07:55:73:61:06:5f:
        be:eb:6d:fe:60:61:e2:d5:64:40:43:63:0e:94:a1:b2:87:dd:
        84:ea:cd:bf:4b:cf:c8:c5:bd:b7:75:0d:2b:46:00:f3:80:af:
        47:99:c7:6b:53:ce:2d:bd:5b:6c:69:99:9b:45:84:a5:3a:fd:
        e1:07
-----BEGIN CERTIFICATE-----
MIIB7TCCAVYCAxAACDANBgkqhkiG9w0BAQUFADA9MQswCQYDVQQGEwJFRTELMAkG
A1UEChMCVVQxDDAKBgNVBAsTA0FUSTETMBEGA1UEAxMKTGlicmFyeSBDQTAiFw0x
MDA2MDEwOTI5MzJaFxExMDAzMjEwMTAxNTYtMDcwMDA7MQswCQYDVQQGEwJFRTEL
MAkGA1UEChMCVVQxDDAKBgNVBAsTA0FUSTERMA8GA1UEAxMIT3V0ZGF0ZWQwgZ8w
DQYJKoZIhvcNAQEBBQADgY0AMIGJAoGBAL2ax2T/FAhDxx2pFic+C4sGXsf9YWeu
0t5y+gnvMkStCkGGOtMOpZqZZzCnfcUNrsJxiKvvoAZoBLYQOdT9/5brn7H8EkF/
LYuPd/FhLccnBrx9E3BJToR07ahWxv+ZzwEwCmU2ztWMZ3BQ00fkTom8lvt98YZm
KaB/iYlwCoDvAgMBAAEwDQYJKoZIhvcNAQEFBQADgYEACb92ZI1bwoMZooXnLiVE
T7/zCKFo8ErKiCZabv7piHp3SJujLPSgvxkVaCAdLypiW2d+wi51oTAagV8UwP1K
BeraB1VzYQZfvutt/mBh4tVkQENjDpShsofdhOrNv0vPyMW9t3UNK0YA84CvR5nH
a1POLb1bbGmZm0WEpTr94Qc=
-----END CERTIFICATE-----
