Certificate:
    Data:
        Version: 3 (0x2)
        Serial Number: 1048585 (0x100009)
        Signature Algorithm: sha1WithRSAEncryption
        Issuer: C=EE, O=UT, OU=ATI, CN=Library CA
        Validity
            Not Before: Jun  1 09:32:55 2010 GMT
            Not After : Jun  1 09:32:55 2011 GMT
        Subject: C=EE, O=UT, OU=ATI, CN=Revoked
        Subject Public Key Info:
            Public Key Algorithm: rsaEncryption
            RSA Public Key: (1024 bit)
                Modulus (1024 bit):
                    00:ab:84:60:88:cb:19:e4:53:45:6f:ad:e7:ee:36:
                    99:5f:3d:60:2c:14:68:d1:81:be:5e:66:cf:43:1c:
                    d8:44:03:22:05:59:13:4c:57:47:37:b0:86:2f:08:
                    c7:50:67:b0:56:8a:a9:f9:4c:f9:dd:0d:76:5c:8f:
                    79:03:b7:ac:5a:c3:81:33:4e:52:7c:7f:69:db:6f:
                    98:5a:9f:17:4b:17:5c:ab:ba:2f:4d:6b:a5:d9:c8:
                    20:82:cb:b8:d7:88:66:ea:28:c2:be:ef:18:e0:8d:
                    9b:43:ea:66:d9:94:76:45:aa:47:ef:9a:1f:b3:dd:
                    44:02:57:79:a5:04:2d:11:45
                Exponent: 65537 (0x10001)
        X509v3 extensions:
            X509v3 Basic Constraints: 
                CA:FALSE
            X509v3 Subject Key Identifier: 
                30:41:F6:1E:E5:F1:7C:A7:A0:C3:82:B6:B5:50:04:1F:E0:8B:89:46
            X509v3 Key Usage: 
                Digital Signature, Non Repudiation, Key Encipherment
    Signature Algorithm: sha1WithRSAEncryption
        70:b7:bd:c4:b6:65:df:66:42:9d:93:3c:05:e6:0a:c2:8c:56:
        68:6a:d7:f7:82:63:fc:69:bc:f9:b1:af:53:09:fa:8d:5d:bb:
        3a:bf:e9:69:a6:95:9d:80:ac:10:cd:b9:cc:2b:b6:32:40:a8:
        d3:0a:b8:48:e1:d8:97:2a:5a:7a:e4:8a:6b:e9:70:d6:f6:1f:
        0c:c6:bd:86:ca:91:10:bd:ec:ed:c7:35:4a:c0:73:ef:bb:5b:
        4d:84:ce:60:66:cf:7f:4e:99:2f:56:06:0d:e0:be:f3:5e:64:
        62:7b:09:f1:6d:76:d4:34:10:19:d5:7f:a5:3a:e1:d1:5d:74:
        e4:3a
-----BEGIN CERTIFICATE-----
MIICKDCCAZGgAwIBAgIDEAAJMA0GCSqGSIb3DQEBBQUAMD0xCzAJBgNVBAYTAkVF
MQswCQYDVQQKEwJVVDEMMAoGA1UECxMDQVRJMRMwEQYDVQQDEwpMaWJyYXJ5IENB
MB4XDTEwMDYwMTA5MzI1NVoXDTExMDYwMTA5MzI1NVowOjELMAkGA1UEBhMCRUUx
CzAJBgNVBAoTAlVUMQwwCgYDVQQLEwNBVEkxEDAOBgNVBAMTB1Jldm9rZWQwgZ8w
DQYJKoZIhvcNAQEBBQADgY0AMIGJAoGBAKuEYIjLGeRTRW+t5+42mV89YCwUaNGB
vl5mz0Mc2EQDIgVZE0xXRzewhi8Ix1BnsFaKqflM+d0NdlyPeQO3rFrDgTNOUnx/
adtvmFqfF0sXXKu6L01rpdnIIILLuNeIZuoowr7vGOCNm0PqZtmUdkWqR++aH7Pd
RAJXeaUELRFFAgMBAAGjOTA3MAkGA1UdEwQCMAAwHQYDVR0OBBYEFDBB9h7l8Xyn
oMOCtrVQBB/gi4lGMAsGA1UdDwQEAwIF4DANBgkqhkiG9w0BAQUFAAOBgQBwt73E
tmXfZkKdkzwF5grCjFZoatf3gmP8abz5sa9TCfqNXbs6v+lpppWdgKwQzbnMK7Yy
QKjTCrhI4diXKlp65Ipr6XDW9h8Mxr2GypEQveztxzVKwHPvu1tNhM5gZs9/Tpkv
VgYN4L7zXmRiewnxbXbUNBAZ1X+lOuHRXXTkOg==
-----END CERTIFICATE-----
