Certificate:
    Data:
        Version: 3 (0x2)
        Serial Number: 1048583 (0x100007)
        Signature Algorithm: sha1WithRSAEncryption
        Issuer: C=EE, O=UT, OU=ATI, CN=Library CA
        Validity
            Not Before: Jun  1 09:24:51 2010 GMT
            Not After : Jun  1 09:24:51 2011 GMT
        Subject: C=EE, O=UT, OU=ATI, CN=Outdated
        Subject Public Key Info:
            Public Key Algorithm: rsaEncryption
            RSA Public Key: (1024 bit)
                Modulus (1024 bit):
                    00:b1:3f:d8:33:8a:3d:8b:fd:2d:2d:ed:50:4e:2b:
                    8b:04:b2:5f:ee:8b:59:5c:58:e8:89:62:29:68:21:
                    bb:8c:2e:af:26:36:e8:52:2c:f5:5c:29:29:4d:d7:
                    06:c0:69:d3:40:bf:af:3e:e8:fe:ab:ba:53:70:5a:
                    e7:ff:bf:32:7e:9e:3f:3b:94:6a:03:c5:56:73:a9:
                    c4:26:dd:0a:3e:64:22:33:10:d0:c3:90:08:d1:09:
                    c8:06:bb:68:bd:b7:26:8b:f5:42:2d:b3:fb:75:28:
                    ff:8c:00:3c:6b:ab:10:48:21:5f:e4:fb:bb:7f:91:
                    9c:0f:10:a8:fa:81:a9:e3:1b
                Exponent: 65537 (0x10001)
        X509v3 extensions:
            X509v3 Basic Constraints: 
                CA:FALSE
            X509v3 Subject Key Identifier: 
                99:E0:8A:C5:73:0D:B6:41:77:8F:DE:55:51:13:41:C9:B2:37:8A:05
            X509v3 Key Usage: 
                Digital Signature, Non Repudiation, Key Encipherment
    Signature Algorithm: sha1WithRSAEncryption
        6b:3e:c0:79:45:c0:fe:df:f7:c3:21:f6:44:cb:f2:5f:f6:59:
        92:a3:e9:f0:a6:ca:bb:82:03:8b:30:0c:a0:1e:02:d7:c3:6e:
        11:bc:76:53:42:a0:55:5c:da:f1:96:bb:6f:12:4d:ca:4f:86:
        9a:63:5e:42:7a:c9:90:56:1a:12:26:7f:4b:16:3e:a3:01:58:
        4c:11:3e:8e:c4:a0:de:41:97:90:ec:db:b1:25:90:aa:15:31:
        5a:e8:dc:97:99:0f:4e:6b:0a:91:50:8d:c0:e3:e4:31:80:90:
        d6:50:d2:df:f7:93:ea:ef:ea:15:86:99:6b:3e:52:da:1a:18:
        a9:96
-----BEGIN CERTIFICATE-----
MIICKTCCAZKgAwIBAgIDEAAHMA0GCSqGSIb3DQEBBQUAMD0xCzAJBgNVBAYTAkVF
MQswCQYDVQQKEwJVVDEMMAoGA1UECxMDQVRJMRMwEQYDVQQDEwpMaWJyYXJ5IENB
MB4XDTEwMDYwMTA5MjQ1MVoXDTExMDYwMTA5MjQ1MVowOzELMAkGA1UEBhMCRUUx
CzAJBgNVBAoTAlVUMQwwCgYDVQQLEwNBVEkxETAPBgNVBAMTCE91dGRhdGVkMIGf
MA0GCSqGSIb3DQEBAQUAA4GNADCBiQKBgQCxP9gzij2L/S0t7VBOK4sEsl/ui1lc
WOiJYiloIbuMLq8mNuhSLPVcKSlN1wbAadNAv68+6P6rulNwWuf/vzJ+nj87lGoD
xVZzqcQm3Qo+ZCIzENDDkAjRCcgGu2i9tyaL9UIts/t1KP+MADxrqxBIIV/k+7t/
kZwPEKj6ganjGwIDAQABozkwNzAJBgNVHRMEAjAAMB0GA1UdDgQWBBSZ4IrFcw22
QXeP3lVRE0HJsjeKBTALBgNVHQ8EBAMCBeAwDQYJKoZIhvcNAQEFBQADgYEAaz7A
eUXA/t/3wyH2RMvyX/ZZkqPp8KbKu4IDizAMoB4C18NuEbx2U0KgVVza8Za7bxJN
yk+GmmNeQnrJkFYaEiZ/SxY+owFYTBE+jsSg3kGXkOzbsSWQqhUxWujcl5kPTmsK
kVCNwOPkMYCQ1lDS3/eT6u/qFYaZaz5S2hoYqZY=
-----END CERTIFICATE-----
