Certificate:
    Data:
        Version: 3 (0x2)
        Serial Number: 1048580 (0x100004)
        Signature Algorithm: sha1WithRSAEncryption
        Issuer: C=EE, O=UT, OU=ATI, CN=Library CA
        Validity
            Not Before: May 27 15:24:23 2010 GMT
            Not After : May 27 15:24:23 2011 GMT
        Subject: C=EE, O=UT, OU=ATI, CN=Lender SSL
        Subject Public Key Info:
            Public Key Algorithm: rsaEncryption
            RSA Public Key: (1024 bit)
                Modulus (1024 bit):
                    00:ed:66:af:20:99:97:ea:54:e3:87:92:7b:18:df:
                    d6:b4:7a:5c:55:a1:c5:de:e0:ed:75:14:d4:ab:cc:
                    42:64:3b:68:90:fc:f7:2f:20:ba:a3:a7:48:68:e6:
                    2b:7f:69:1b:a1:64:0f:9b:69:ba:5a:82:a0:9e:d8:
                    60:97:e9:74:a0:e0:fa:88:8e:a3:9f:da:32:f6:a0:
                    99:19:43:aa:9f:91:e0:65:7c:b3:5b:b6:13:fb:0a:
                    1c:da:3e:57:65:cf:e7:d9:1d:db:25:60:ec:be:e1:
                    a2:1f:f0:c5:9b:62:d9:89:a7:62:e4:18:26:65:a1:
                    18:48:30:f7:eb:45:94:60:2b
                Exponent: 65537 (0x10001)
        X509v3 extensions:
            X509v3 Basic Constraints: 
                CA:FALSE
            Netscape Cert Type: 
                SSL Client
            X509v3 Extended Key Usage: 
                TLS Web Client Authentication
            Netscape Comment: 
                OpenSSL Certificate for Client
    Signature Algorithm: sha1WithRSAEncryption
        6d:8a:dc:1d:9f:b3:12:72:06:49:bf:45:24:c5:fa:ea:01:50:
        3a:24:7c:f2:4e:04:94:5e:a1:09:2f:ca:8a:80:86:d7:c6:46:
        79:3d:ce:10:5c:c4:3c:cd:b5:fa:fd:5f:2d:dd:d7:ec:f8:4a:
        92:99:b4:f6:ec:a8:72:eb:cf:9b:31:3a:d3:8b:2c:38:0f:c9:
        9e:b4:0d:27:b5:86:96:dc:12:90:f6:db:a1:86:2c:b4:e8:77:
        95:b7:89:88:5d:c7:f8:00:39:b0:e4:07:b0:f2:1e:0e:17:c5:
        2d:71:3e:82:76:db:a2:80:f7:84:2a:de:72:97:20:c8:ff:30:
        e2:06
-----BEGIN CERTIFICATE-----
MIICVjCCAb+gAwIBAgIDEAAEMA0GCSqGSIb3DQEBBQUAMD0xCzAJBgNVBAYTAkVF
MQswCQYDVQQKEwJVVDEMMAoGA1UECxMDQVRJMRMwEQYDVQQDEwpMaWJyYXJ5IENB
MB4XDTEwMDUyNzE1MjQyM1oXDTExMDUyNzE1MjQyM1owPTELMAkGA1UEBhMCRUUx
CzAJBgNVBAoTAlVUMQwwCgYDVQQLEwNBVEkxEzARBgNVBAMTCkxlbmRlciBTU0ww
gZ8wDQYJKoZIhvcNAQEBBQADgY0AMIGJAoGBAO1mryCZl+pU44eSexjf1rR6XFWh
xd7g7XUU1KvMQmQ7aJD89y8guqOnSGjmK39pG6FkD5tpulqCoJ7YYJfpdKDg+oiO
o5/aMvagmRlDqp+R4GV8s1u2E/sKHNo+V2XP59kd2yVg7L7hoh/wxZti2YmnYuQY
JmWhGEgw9+tFlGArAgMBAAGjZDBiMAkGA1UdEwQCMAAwEQYJYIZIAYb4QgEBBAQD
AgeAMBMGA1UdJQQMMAoGCCsGAQUFBwMCMC0GCWCGSAGG+EIBDQQgFh5PcGVuU1NM
IENlcnRpZmljYXRlIGZvciBDbGllbnQwDQYJKoZIhvcNAQEFBQADgYEAbYrcHZ+z
EnIGSb9FJMX66gFQOiR88k4ElF6hCS/KioCG18ZGeT3OEFzEPM21+v1fLd3X7PhK
kpm09uyocuvPmzE604ssOA/JnrQNJ7WGltwSkPbboYYstOh3lbeJiF3H+AA5sOQH
sPIeDhfFLXE+gnbbooD3hCrecpcgyP8w4gY=
-----END CERTIFICATE-----
