Certificate:
    Data:
        Version: 3 (0x2)
        Serial Number: 1048582 (0x100006)
        Signature Algorithm: sha1WithRSAEncryption
        Issuer: C=EE, O=UT, OU=ATI, CN=Library CA
        Validity
            Not Before: Jun  1 09:17:51 2010 GMT
            Not After : Jun  1 09:17:51 2011 GMT
        Subject: C=EE, O=UT, OU=ATI, CN=No usage
        Subject Public Key Info:
            Public Key Algorithm: rsaEncryption
            RSA Public Key: (1024 bit)
                Modulus (1024 bit):
                    00:ba:fd:2a:37:35:00:c0:72:c2:b9:ab:5f:50:09:
                    2f:c5:ba:4e:8f:57:69:90:c2:12:7e:a7:5a:da:5d:
                    8e:59:69:22:de:65:09:a6:b0:73:e6:6b:2f:fa:36:
                    97:00:fd:88:27:ee:07:41:d5:98:fd:bb:01:e1:8f:
                    f2:28:6d:0e:52:fd:d9:86:f5:91:fe:90:1b:0f:10:
                    f0:fb:02:a7:0b:66:10:46:eb:a2:6f:f0:16:42:a6:
                    c0:59:62:ac:be:83:36:67:c4:65:5d:6f:f1:bb:7a:
                    79:ae:5f:c7:2f:08:a5:25:e6:a2:6b:ea:32:b0:f4:
                    b5:18:67:6c:5c:1f:04:97:eb
                Exponent: 65537 (0x10001)
        X509v3 extensions:
            X509v3 Basic Constraints: 
                CA:FALSE
            X509v3 Subject Key Identifier: 
                8B:48:D7:DE:1B:DF:21:87:2C:4C:22:06:3E:5E:03:A8:C7:CC:2E:4C
            X509v3 Key Usage: 
                Key Encipherment
    Signature Algorithm: sha1WithRSAEncryption
        5c:ef:c6:bb:a3:ec:d1:60:59:be:a6:64:ed:54:15:50:18:4d:
        fd:2a:04:e3:3a:af:c7:23:a1:0a:83:b4:57:d8:0a:bc:b0:f3:
        66:80:82:2a:e0:83:f2:4a:33:66:44:07:71:69:a0:7f:2e:7e:
        65:ef:30:e7:9a:c1:71:49:97:1c:84:59:a4:30:9a:da:99:46:
        3d:c4:46:80:20:09:88:bf:dc:1e:44:b0:82:ad:a3:ff:61:35:
        c3:81:c9:dd:f1:6f:cf:8d:56:22:b3:76:50:1f:67:52:be:03:
        16:78:29:bb:9d:f4:d4:bc:9e:c1:0b:bb:8e:55:bc:2f:e9:73:
        2d:89
-----BEGIN CERTIFICATE-----
MIICKTCCAZKgAwIBAgIDEAAGMA0GCSqGSIb3DQEBBQUAMD0xCzAJBgNVBAYTAkVF
MQswCQYDVQQKEwJVVDEMMAoGA1UECxMDQVRJMRMwEQYDVQQDEwpMaWJyYXJ5IENB
MB4XDTEwMDYwMTA5MTc1MVoXDTExMDYwMTA5MTc1MVowOzELMAkGA1UEBhMCRUUx
CzAJBgNVBAoTAlVUMQwwCgYDVQQLEwNBVEkxETAPBgNVBAMTCE5vIHVzYWdlMIGf
MA0GCSqGSIb3DQEBAQUAA4GNADCBiQKBgQC6/So3NQDAcsK5q19QCS/Fuk6PV2mQ
whJ+p1raXY5ZaSLeZQmmsHPmay/6NpcA/Ygn7gdB1Zj9uwHhj/IobQ5S/dmG9ZH+
kBsPEPD7AqcLZhBG66Jv8BZCpsBZYqy+gzZnxGVdb/G7enmuX8cvCKUl5qJr6jKw
9LUYZ2xcHwSX6wIDAQABozkwNzAJBgNVHRMEAjAAMB0GA1UdDgQWBBSLSNfeG98h
hyxMIgY+XgOox8wuTDALBgNVHQ8EBAMCBSAwDQYJKoZIhvcNAQEFBQADgYEAXO/G
u6Ps0WBZvqZk7VQVUBhN/SoE4zqvxyOhCoO0V9gKvLDzZoCCKuCD8kozZkQHcWmg
fy5+Ze8w55rBcUmXHIRZpDCa2plGPcRGgCAJiL/cHkSwgq2j/2E1w4HJ3fFvz41W
IrN2UB9nUr4DFngpu5301LyewQu7jlW8L+lzLYk=
-----END CERTIFICATE-----
