Certificate:
    Data:
        Version: 3 (0x2)
        Serial Number: 1048581 (0x100005)
        Signature Algorithm: sha1WithRSAEncryption
        Issuer: C=EE, O=UT, OU=ATI, CN=Library CA
        Validity
            Not Before: May 27 15:28:30 2010 GMT
            Not After : May 27 15:28:30 2011 GMT
        Subject: C=EE, O=UT, OU=ATI, CN=Lender Signature
        Subject Public Key Info:
            Public Key Algorithm: rsaEncryption
            RSA Public Key: (1024 bit)
                Modulus (1024 bit):
                    00:cf:e6:20:74:8e:fc:3a:7e:e6:f4:45:f6:b9:64:
                    af:f8:c0:d5:f0:55:d4:68:ea:1c:24:b2:7b:e0:8b:
                    c5:4a:18:1e:0d:7a:f1:df:23:a3:8a:93:b4:a7:de:
                    1e:83:0a:33:93:b9:1a:13:d3:91:00:52:54:a8:d9:
                    ef:a3:7e:20:c5:45:a9:f4:d4:a1:e7:f8:1a:67:61:
                    48:c5:de:28:99:b7:9c:21:2c:f6:c2:f3:12:de:e8:
                    4c:e7:a1:27:6c:15:76:2e:5a:e2:af:f7:d9:c5:0f:
                    88:d1:48:37:18:6c:17:8b:b4:76:2c:57:00:86:cd:
                    18:6d:6e:4f:1b:96:4c:84:75
                Exponent: 65537 (0x10001)
        X509v3 extensions:
            X509v3 Basic Constraints: 
                CA:FALSE
            X509v3 Subject Key Identifier: 
                77:A1:62:D2:88:08:4D:6F:F6:99:91:84:7F:C8:00:95:5C:0D:60:5E
            X509v3 Key Usage: 
                Digital Signature, Non Repudiation, Key Encipherment
    Signature Algorithm: sha1WithRSAEncryption
        4e:2f:cf:a3:d1:73:56:45:03:4e:8d:12:fe:6e:00:62:39:55:
        b2:f2:b5:36:14:48:e9:87:55:52:1b:7d:30:46:c8:69:32:4b:
        18:7b:6f:8a:de:1d:1c:5b:98:52:4a:5b:84:53:37:07:4b:7a:
        9d:c3:fb:9f:8d:5f:7c:f0:2a:f6:37:7b:99:05:cd:fa:39:ce:
        3c:9f:2d:af:5a:35:55:3e:34:8b:bc:04:73:83:23:67:77:51:
        e4:eb:2c:d5:c2:20:fc:06:27:d3:e1:37:14:30:79:d2:61:8d:
        52:90:b6:af:6a:32:d8:87:6f:24:52:35:01:60:ad:92:89:82:
        2c:4a
-----BEGIN CERTIFICATE-----
MIICMTCCAZqgAwIBAgIDEAAFMA0GCSqGSIb3DQEBBQUAMD0xCzAJBgNVBAYTAkVF
MQswCQYDVQQKEwJVVDEMMAoGA1UECxMDQVRJMRMwEQYDVQQDEwpMaWJyYXJ5IENB
MB4XDTEwMDUyNzE1MjgzMFoXDTExMDUyNzE1MjgzMFowQzELMAkGA1UEBhMCRUUx
CzAJBgNVBAoTAlVUMQwwCgYDVQQLEwNBVEkxGTAXBgNVBAMTEExlbmRlciBTaWdu
YXR1cmUwgZ8wDQYJKoZIhvcNAQEBBQADgY0AMIGJAoGBAM/mIHSO/Dp+5vRF9rlk
r/jA1fBV1GjqHCSye+CLxUoYHg168d8jo4qTtKfeHoMKM5O5GhPTkQBSVKjZ76N+
IMVFqfTUoef4GmdhSMXeKJm3nCEs9sLzEt7oTOehJ2wVdi5a4q/32cUPiNFINxhs
F4u0dixXAIbNGG1uTxuWTIR1AgMBAAGjOTA3MAkGA1UdEwQCMAAwHQYDVR0OBBYE
FHehYtKICE1v9pmRhH/IAJVcDWBeMAsGA1UdDwQEAwIF4DANBgkqhkiG9w0BAQUF
AAOBgQBOL8+j0XNWRQNOjRL+bgBiOVWy8rU2FEjph1VSG30wRshpMksYe2+K3h0c
W5hSSluEUzcHS3qdw/ufjV988Cr2N3uZBc36Oc48ny2vWjVVPjSLvARzgyNnd1Hk
6yzVwiD8BifT4TcUMHnSYY1SkLavajLYh28kUjUBYK2SiYIsSg==
-----END CERTIFICATE-----
